	.file	"assembly.cpp"
	.text
.Ltext0:
	.p2align 4,,15
	.globl	_Z7charcpyPcPKcm
	.type	_Z7charcpyPcPKcm, @function
_Z7charcpyPcPKcm:
.LFB1514:
	.file 1 "assembly.cpp"
	.loc 1 18 0
	.cfi_startproc
.LVL0:
.LBB6:
	.loc 1 21 0
	testq	%rdx, %rdx
	leaq	-1(%rdx), %r10
.LVL1:
	je	.L1
	movq	%rdx, %r8
.LBE6:
	.loc 1 18 0
	leaq	16(%rsi), %rax
	leaq	16(%rdi), %rcx
	shrq	$4, %r8
	movq	%r8, %r9
	salq	$4, %r9
	cmpq	%rax, %rdi
	setae	%al
	cmpq	%rcx, %rsi
	setae	%cl
	orl	%ecx, %eax
	cmpq	$15, %rdx
	seta	%cl
	testb	%cl, %al
	je	.L3
	testq	%r9, %r9
	je	.L3
	xorl	%eax, %eax
	xorl	%ecx, %ecx
.LVL2:
	.p2align 4,,10
	.p2align 3
.L4:
	.loc 1 22 0
	movdqu	(%rsi,%rax), %xmm0
	addq	$1, %rcx
	movdqu	%xmm0, (%rdi,%rax)
	addq	$16, %rax
	cmpq	%rcx, %r8
	ja	.L4
	addq	%r9, %rdi
.LVL3:
	addq	%r9, %rsi
.LVL4:
	subq	%r9, %r10
	cmpq	%r9, %rdx
	je	.L1
.L3:
	.loc 1 18 0
	leaq	1(%r10), %rcx
	xorl	%eax, %eax
	.p2align 4,,10
	.p2align 3
.L6:
.LBB7:
	.loc 1 22 0
	movzbl	(%rsi,%rax), %edx
	movb	%dl, (%rdi,%rax)
	addq	$1, %rax
	.loc 1 21 0
	cmpq	%rcx, %rax
	jne	.L6
.L1:
	rep
	ret
.LBE7:
	.cfi_endproc
.LFE1514:
	.size	_Z7charcpyPcPKcm, .-_Z7charcpyPcPKcm
	.p2align 4,,15
	.globl	_Z6intcpyPiPKim
	.type	_Z6intcpyPiPKim, @function
_Z6intcpyPiPKim:
.LFB1515:
	.loc 1 26 0
	.cfi_startproc
.LVL5:
.LBB8:
	.loc 1 29 0
	cmpq	$3, %rdx
	jbe	.L13
	.loc 1 26 0
	leaq	-4(%rdx), %r11
	leaq	16(%rsi), %rax
	leaq	16(%rdi), %r9
	shrq	$2, %r11
	addq	$1, %r11
	movq	%r11, %r8
	shrq	$2, %r8
	cmpq	$11, %r11
	seta	%cl
	cmpq	%rax, %rdi
	leaq	0(,%r8,4), %r10
	setae	%al
	cmpq	%r9, %rsi
	setae	%r9b
	orl	%r9d, %eax
	testb	%al, %cl
	je	.L22
	testq	%r10, %r10
	je	.L22
.LBE8:
	xorl	%eax, %eax
	xorl	%ecx, %ecx
.LVL6:
	.p2align 4,,10
	.p2align 3
.L15:
.LBB9:
	.loc 1 30 0
	movdqu	(%rsi,%rax), %xmm0
	addq	$1, %rcx
	movdqu	%xmm0, (%rdi,%rax)
	addq	$16, %rax
	cmpq	%rcx, %r8
	ja	.L15
	.loc 1 26 0
	leaq	0(,%r10,4), %r9
	movq	%r10, %rax
	negq	%rax
	leaq	(%rdi,%r9), %r8
	addq	%rsi, %r9
	cmpq	%r10, %r11
	leaq	(%rdx,%rax,4), %rax
	je	.L16
.L14:
	subq	$4, %rax
	shrq	$2, %rax
	leaq	4(,%rax,4), %r10
.LBE9:
	xorl	%eax, %eax
	.p2align 4,,10
	.p2align 3
.L17:
.LBB10:
	.loc 1 30 0
	movl	(%r9,%rax), %ecx
	movl	%ecx, (%r8,%rax)
	addq	$4, %rax
	.loc 1 29 0
	cmpq	%r10, %rax
	jne	.L17
.L16:
	.loc 1 26 0
	salq	$2, %r11
	andl	$3, %edx
	addq	%r11, %rdi
.LVL7:
	addq	%r11, %rsi
.LVL8:
.L13:
	.loc 1 26 0 is_stmt 0 discriminator 1
	xorl	%eax, %eax
	.loc 1 35 0 is_stmt 1 discriminator 1
	testq	%rdx, %rdx
	je	.L12
.LVL9:
	.p2align 4,,10
	.p2align 3
.L23:
	.loc 1 36 0
	movzbl	(%rsi,%rax), %ecx
	movb	%cl, (%rdi,%rax)
	addq	$1, %rax
	.loc 1 35 0
	cmpq	%rdx, %rax
	jne	.L23
.L12:
	rep
	ret
.LVL10:
.L22:
.LBE10:
	.loc 1 28 0
	movq	%rsi, %r9
	.loc 1 27 0
	movq	%rdi, %r8
	.loc 1 26 0
	movq	%rdx, %rax
	jmp	.L14
	.cfi_endproc
.LFE1515:
	.size	_Z6intcpyPiPKim, .-_Z6intcpyPiPKim
	.p2align 4,,15
	.globl	_Z6dblcpyPdPKdm
	.type	_Z6dblcpyPdPKdm, @function
_Z6dblcpyPdPKdm:
.LFB1516:
	.loc 1 40 0
	.cfi_startproc
.LVL11:
.LBB12:
	.loc 1 43 0
#APP
# 43 "assembly.cpp" 1
	#while loop
# 0 "" 2
	.loc 1 44 0
#NO_APP
	cmpq	$7, %rdx
	jbe	.L34
	.loc 1 40 0
	leaq	-8(%rdx), %rax
	shrq	$3, %rax
	leaq	8(,%rax,8), %rcx
.LBE12:
	xorl	%eax, %eax
.LVL12:
	.p2align 4,,10
	.p2align 3
.L29:
	
.LBB13:
	.loc 1 45 0
	movsd	(%rsi,%rax), %xmm0
	movsd	%xmm0, (%rdi,%rax)
	addq	$8, %rax
	.loc 1 44 0
	cmpq	%rcx, %rax
	jne	.L29
	addq	%rax, %rdi
.LVL13:
	andl	$7, %edx
	addq	%rsi, %rax
.L28:
	.loc 1 48 0
#APP
# 48 "assembly.cpp" 1
	#end while loop
# 0 "" 2
.LVL14:
	.loc 1 52 0
#NO_APP
	cmpq	$3, %rdx
	jbe	.L30
	.loc 1 53 0
	movl	(%rax), %ecx
	andl	$3, %edx
.LVL15:
	addq	$4, %rax
.LVL16:
	movl	%ecx, (%rdi)
.LVL17:
	addq	$4, %rdi
.L30:
.LVL18:
	.loc 1 40 0 discriminator 1
	xorl	%ecx, %ecx
	.loc 1 58 0 discriminator 1
	testq	%rdx, %rdx
	je	.L27
.LVL19:
	.p2align 4,,10
	.p2align 3
.L36:
	.loc 1 59 0
	movzbl	(%rax,%rcx), %esi
	movb	%sil, (%rdi,%rcx)
	addq	$1, %rcx
	.loc 1 58 0
	cmpq	%rdx, %rcx
	jne	.L36
.L27:
	rep
	ret
.LVL20:
.L34:
	.loc 1 42 0
	movq	%rsi, %rax
	jmp	.L28
.LBE13:
	.cfi_endproc
.LFE1516:
	.size	_Z6dblcpyPdPKdm, .-_Z6dblcpyPdPKdm
	.p2align 4,,15
	.globl	_Z7processPv
	.type	_Z7processPv, @function
_Z7processPv:
.LFB1517:
	.loc 1 64 0
	.cfi_startproc
.LVL21:
	pushq	%r13
.LCFI0:
	.cfi_def_cfa_offset 16
	.cfi_offset 13, -16
.LBB19:
	.loc 1 69 0
	movl	$2064, %edi
.LVL22:
.LBE19:
	.loc 1 64 0
	pushq	%r12
.LCFI1:
	.cfi_def_cfa_offset 24
	.cfi_offset 12, -24
	pushq	%rbp
.LCFI2:
	.cfi_def_cfa_offset 32
	.cfi_offset 6, -32
	pushq	%rbx
.LCFI3:
	.cfi_def_cfa_offset 40
	.cfi_offset 3, -40
	subq	$40, %rsp
.LCFI4:
	.cfi_def_cfa_offset 80
.LBB36:
	.loc 1 69 0
	call	malloc
.LVL23:
	.loc 1 70 0
	movl	$2064, %edi
	.loc 1 69 0
	movq	%rax, %rbp
.LVL24:
	.loc 1 74 0
	leaq	16(%rbp), %r12
	.loc 1 70 0
	call	malloc
.LVL25:
	.loc 1 75 0
	leaq	16(%rax), %r13
	.loc 1 77 0
	xorl	%esi, %esi
	movq	%rsp, %rdi
	.loc 1 70 0
	movq	%rax, %rbx
.LVL26:
	.loc 1 74 0
	andq	$-16, %r12
.LVL27:
	.loc 1 77 0
	call	gettimeofday
.LVL28:
	.loc 1 75 0
	andq	$-16, %r13
.LVL29:
	.loc 1 78 0
#APP
# 78 "assembly.cpp" 1
	#for loop
# 0 "" 2
.LVL30:
	.loc 1 64 0
#NO_APP
	leaq	16(%r13), %rax
.LBE36:
	.loc 1 79 0
	fldz
.LBB37:
	.loc 1 64 0
	leaq	16(%r12), %rdx
.LBB20:
.LBB21:
.LBB22:
	movq	%r13, %rcx
	leaq	2048(%r12), %rsi
.LBE22:
.LBE21:
.LBE20:
	cmpq	%rax, %r12
.LBB31:
	.loc 1 79 0
	flds	.LC1(%rip)
.LBE31:
	.loc 1 64 0
	setae	%al
	cmpq	%rdx, %r13
	setae	%dl
.LBB32:
	.loc 1 79 0
	flds	.LC2(%rip)
.LBB27:
.LBB23:
	.loc 1 64 0
	subq	%r12, %rcx
.LBE23:
.LBE27:
.LBE32:
	orl	%edx, %eax
.LVL31:
	.p2align 4,,10
	.p2align 3
.L44:
.LBB33:
.LBB28:
.LBB24:
	.loc 1 43 0
#APP
# 43 "assembly.cpp" 1
	#while loop
# 0 "" 2
#NO_APP
	testb	%al, %al
.LBE24:
.LBE28:
.LBE33:
.LBE37:
	.loc 1 42 0
	movq	%r12, %rdx
	je	.L43
.LVL32:
	.p2align 4,,10
	.p2align 3
.L41:
	mov	%rdx, %r8
	sub	%r12 , %r8
	sar	$4 , %r8
	and	$2047 , %r8
	cmp	$0 , %r8
	jne	.LBB25
	prefetcht0	32768(%rdx)
.LBB38:
.LBB34:
.LBB29:
.LBB25:
	.loc 1 45 0
	movapd	(%rdx), %xmm0
	movapd	%xmm0, (%rcx,%rdx)
.LVL33:
	addq	$16, %rdx
	cmpq	%rsi, %rdx
	jne	.L41
	fxch	%st(2)
.L42:
	.loc 1 48 0
#APP
# 48 "assembly.cpp" 1
	#end while loop
# 0 "" 2
.LVL34:
#NO_APP
.LBE25:
.LBE29:
	.loc 1 79 0
	fadd	%st(1), %st
	fxch	%st(2)
.LVL35:
	fucomi	%st(2), %st
	ja	.L44
	fstp	%st(0)
.LVL36:
	fstp	%st(0)
	fstp	%st(0)
.LBE34:
	.loc 1 82 0
#APP
# 82 "assembly.cpp" 1
	#end for loop
# 0 "" 2
	.loc 1 84 0
#NO_APP
	leaq	16(%rsp), %rdi
	xorl	%esi, %esi
	call	gettimeofday
.LVL37:
	.loc 1 86 0
	movq	16(%rsp), %rax
	subq	(%rsp), %rax
	.loc 1 89 0
	movq	%rbp, %rdi
	.loc 1 86 0
	cvtsi2sdq	%rax, %xmm0
	.loc 1 87 0
	movq	24(%rsp), %rax
	subq	8(%rsp), %rax
	cvtsi2sdq	%rax, %xmm1
	divsd	.LC3(%rip), %xmm1
	addsd	%xmm1, %xmm0
	movsd	%xmm0, total(%rip)
	.loc 1 89 0
	call	free
.LVL38:
	.loc 1 90 0
	movq	%rbx, %rdi
	call	free
.LVL39:
.LBE38:
	.loc 1 91 0
	addq	$40, %rsp
.LCFI5:
	.cfi_remember_state
	.cfi_def_cfa_offset 40
	popq	%rbx
.LCFI6:
	.cfi_def_cfa_offset 32
.LVL40:
	popq	%rbp
.LCFI7:
	.cfi_def_cfa_offset 24
.LVL41:
	popq	%r12
.LCFI8:
	.cfi_def_cfa_offset 16
.LVL42:
	popq	%r13
.LCFI9:
	.cfi_def_cfa_offset 8
.LVL43:
	ret
.LVL44:
	.p2align 4,,10
	.p2align 3
.L43:
.LCFI10:
	.cfi_restore_state
.LBB39:
.LBB35:
.LBB30:
.LBB26:
	.loc 1 45 0
	fldl 	(%rdx)		#movsd	(%rdx), %xmm0
	fstpl 	(%rdx,%rcx)	#movsd	%xmm0, (%rdx,%rcx)
	addq	$8, %rdx
.LVL45:
	.loc 1 44 0
	cmpq	%rsi, %rdx
	jne	.L43
	fxch	%st(2)
	jmp	.L42
.LBE26:
.LBE30:
.LBE35:
.LBE39:
	.cfi_endproc
.LFE1517:
	.size	_Z7processPv, .-_Z7processPv
	.section	.rodata.str1.1,"aMS",@progbits,1
.LC5:
	.string	"a+"
.LC6:
	.string	"assembly.txt"
.LC11:
	.string	"%f\n"
	.section	.text.startup,"ax",@progbits
	.p2align 4,,15
	.globl	main
	.type	main, @function
main:
.LFB1518:
	.loc 1 94 0
	.cfi_startproc
	pushq	%rbx
.LCFI11:
	.cfi_def_cfa_offset 16
	.cfi_offset 3, -16
.LBB40:
	.loc 1 95 0
	movl	$.LC5, %esi
	movl	$.LC6, %edi
.LBE40:
	.loc 1 94 0
	subq	$16, %rsp
.LCFI12:
	.cfi_def_cfa_offset 32
.LBB54:
	.loc 1 95 0
	call	fopen
.LVL46:
.LBB41:
	.loc 1 98 0
	xorl	%edi, %edi
.LBE41:
	.loc 1 95 0
	movq	%rax, %rbx
.LVL47:
.LBB42:
	.loc 1 98 0
	call	_Z7processPv
.LVL48:
	.loc 1 99 0
	movsd	.LC7(%rip), %xmm0
	.loc 1 98 0
	xorl	%edi, %edi
	.loc 1 99 0
	movsd	.LC8(%rip), %xmm1
	mulsd	total(%rip), %xmm0
	divsd	%xmm0, %xmm1
	addsd	.LC9(%rip), %xmm1
.LVL49:
	.loc 1 98 0
	movsd	%xmm1, (%rsp)
	call	_Z7processPv
.LVL50:
	.loc 1 99 0
	movsd	.LC7(%rip), %xmm0
	.loc 1 98 0
	xorl	%edi, %edi
	.loc 1 99 0
	movsd	.LC8(%rip), %xmm2
	mulsd	total(%rip), %xmm0
	movsd	(%rsp), %xmm1
	divsd	%xmm0, %xmm2
	addsd	%xmm2, %xmm1
.LVL51:
	.loc 1 98 0
	movsd	%xmm1, (%rsp)
	call	_Z7processPv
.LVL52:
	.loc 1 99 0
	movsd	.LC7(%rip), %xmm0
	.loc 1 98 0
	xorl	%edi, %edi
	.loc 1 99 0
	movsd	.LC8(%rip), %xmm2
	mulsd	total(%rip), %xmm0
	movsd	(%rsp), %xmm1
	divsd	%xmm0, %xmm2
	addsd	%xmm2, %xmm1
.LVL53:
	.loc 1 98 0
	movsd	%xmm1, (%rsp)
	call	_Z7processPv
.LVL54:
	.loc 1 99 0
	movsd	.LC7(%rip), %xmm0
	.loc 1 98 0
	xorl	%edi, %edi
	.loc 1 99 0
	movsd	.LC8(%rip), %xmm2
	mulsd	total(%rip), %xmm0
	movsd	(%rsp), %xmm1
	divsd	%xmm0, %xmm2
	addsd	%xmm2, %xmm1
.LVL55:
	.loc 1 98 0
	movsd	%xmm1, (%rsp)
	call	_Z7processPv
.LVL56:
	.loc 1 99 0
	movsd	.LC7(%rip), %xmm0
.LBE42:
.LBB43:
.LBB44:
	.file 2 "/usr/include/x86_64-linux-gnu/bits/stdio2.h"
	.loc 2 99 0
	movq	%rbx, %rdi
.LBE44:
.LBE43:
.LBB48:
	.loc 1 99 0
	movsd	.LC8(%rip), %xmm2
.LBE48:
.LBB49:
.LBB45:
	.loc 2 99 0
	movl	$.LC11, %edx
.LBE45:
.LBE49:
.LBB50:
	.loc 1 99 0
	mulsd	total(%rip), %xmm0
.LBE50:
.LBB51:
.LBB46:
	.loc 2 99 0
	movl	$1, %esi
	movl	$1, %eax
.LBE46:
.LBE51:
.LBB52:
	.loc 1 99 0
	movsd	(%rsp), %xmm1
	divsd	%xmm0, %xmm2
	movapd	%xmm2, %xmm0
	addsd	%xmm1, %xmm0
.LVL57:
.LBE52:
	.loc 1 101 0
	divsd	.LC10(%rip), %xmm0
.LVL58:
.LBB53:
.LBB47:
	.loc 2 99 0
	call	__fprintf_chk
.LVL59:
.LBE47:
.LBE53:
.LBE54:
	.loc 1 104 0
	addq	$16, %rsp
.LCFI13:
	.cfi_def_cfa_offset 16
	xorl	%eax, %eax
	popq	%rbx
.LCFI14:
	.cfi_def_cfa_offset 8
.LVL60:
	ret
	.cfi_endproc
.LFE1518:
	.size	main, .-main
	.p2align 4,,15
	.type	_GLOBAL__sub_I_total, @function
_GLOBAL__sub_I_total:
.LFB1666:
	.loc 1 104 0
	.cfi_startproc
.LVL61:
	subq	$8, %rsp
.LCFI15:
	.cfi_def_cfa_offset 16
.LBB57:
.LBB58:
	.file 3 "/usr/include/c++/4.7/iostream"
	.loc 3 75 0
	movl	$_ZStL8__ioinit, %edi
	call	_ZNSt8ios_base4InitC1Ev
.LVL62:
	movl	$__dso_handle, %edx
	movl	$_ZStL8__ioinit, %esi
	movl	$_ZNSt8ios_base4InitD1Ev, %edi
.LBE58:
.LBE57:
	.loc 1 104 0
	addq	$8, %rsp
.LCFI16:
	.cfi_def_cfa_offset 8
.LBB60:
.LBB59:
	.loc 3 75 0
	jmp	__cxa_atexit
.LVL63:
.LBE59:
.LBE60:
	.cfi_endproc
.LFE1666:
	.size	_GLOBAL__sub_I_total, .-_GLOBAL__sub_I_total
	.section	.init_array,"aw"
	.align 8
	.quad	_GLOBAL__sub_I_total
	.globl	total
	.bss
	.align 8
	.type	total, @object
	.size	total, 8
total:
	.zero	8
	.local	_ZStL8__ioinit
	.comm	_ZStL8__ioinit,1,1
	.section	.rodata.cst4,"aM",@progbits,4
	.align 4
.LC1:
	.long	1157627904
	.align 4
.LC2:
	.long	1317011456
	.section	.rodata.cst8,"aM",@progbits,8
	.align 8
.LC3:
	.long	0
	.long	1093567616
	.align 8
.LC7:
	.long	0
	.long	1093664768
	.align 8
.LC8:
	.long	0
	.long	1104150528
	.align 8
.LC9:
	.long	0
	.long	0
	.align 8
.LC10:
	.long	0
	.long	1075052544
	.text
.Letext0:
	.file 4 "/usr/include/libio.h"
	.file 5 "/usr/include/stdio.h"
	.file 6 "<built-in>"
	.file 7 "/usr/lib/gcc/x86_64-linux-gnu/4.7/include/stddef.h"
	.file 8 "/usr/include/wchar.h"
	.file 9 "/usr/include/c++/4.7/cwchar"
	.file 10 "/usr/include/c++/4.7/bits/exception_ptr.h"
	.file 11 "/usr/include/c++/4.7/x86_64-linux-gnu/bits/c++config.h"
	.file 12 "/usr/include/c++/4.7/cstdint"
	.file 13 "/usr/include/c++/4.7/clocale"
	.file 14 "/usr/include/c++/4.7/cstdlib"
	.file 15 "/usr/include/c++/4.7/cstdio"
	.file 16 "/usr/include/c++/4.7/bits/ios_base.h"
	.file 17 "/usr/include/c++/4.7/cwctype"
	.file 18 "/usr/include/c++/4.7/cmath"
	.file 19 "/usr/include/c++/4.7/cstring"
	.file 20 "/usr/include/x86_64-linux-gnu/bits/wchar2.h"
	.file 21 "/usr/include/time.h"
	.file 22 "/usr/include/c++/4.7/ext/new_allocator.h"
	.file 23 "/usr/include/c++/4.7/ext/numeric_traits.h"
	.file 24 "/usr/include/c++/4.7/debug/debug.h"
	.file 25 "/usr/include/stdint.h"
	.file 26 "/usr/include/locale.h"
	.file 27 "/usr/include/x86_64-linux-gnu/bits/types.h"
	.file 28 "/usr/include/x86_64-linux-gnu/bits/time.h"
	.file 29 "/usr/include/c++/4.7/x86_64-linux-gnu/bits/atomic_word.h"
	.file 30 "/usr/include/stdlib.h"
	.file 31 "/usr/include/x86_64-linux-gnu/bits/stdlib.h"
	.file 32 "/usr/include/_G_config.h"
	.file 33 "/usr/include/x86_64-linux-gnu/bits/stdio.h"
	.file 34 "/usr/include/wctype.h"
	.file 35 "/usr/include/x86_64-linux-gnu/sys/time.h"
	.file 36 "/usr/include/x86_64-linux-gnu/bits/mathdef.h"
	.file 37 "/usr/include/string.h"
	.file 38 "/usr/include/x86_64-linux-gnu/bits/string3.h"
	.file 39 "/usr/include/c++/4.7/bits/stl_pair.h"
	.section	.note.GNU-stack,"",@progbits
