	.file	"assembly.cpp"
	.text
.Ltext0:
	.section	.rodata
	.type	_ZStL19piecewise_construct, @object
	.size	_ZStL19piecewise_construct, 1
_ZStL19piecewise_construct:
	.zero	1
	.local	_ZStL8__ioinit
	.comm	_ZStL8__ioinit,1,1
	.globl	total
	.bss
	.align 8
	.type	total, @object
	.size	total, 8
total:
	.zero	8
	.text
	.globl	_Z7charcpyPcPKcm
	.type	_Z7charcpyPcPKcm, @function
_Z7charcpyPcPKcm:
.LFB1415:
	.file 1 "assembly.cpp"
	.loc 1 18 0
	.cfi_startproc
	pushq	%rbp
.LCFI0:
	.cfi_def_cfa_offset 16
	.cfi_offset 6, -16
	movq	%rsp, %rbp
.LCFI1:
	.cfi_def_cfa_register 6
	movq	%rdi, -24(%rbp)
	movq	%rsi, -32(%rbp)
	movq	%rdx, -40(%rbp)
.LBB2:
	.loc 1 19 0
	movq	-24(%rbp), %rax
	movq	%rax, -16(%rbp)
	.loc 1 20 0
	movq	-32(%rbp), %rax
	movq	%rax, -8(%rbp)
	.loc 1 21 0
	jmp	.L2
.L3:
	.loc 1 22 0
	movq	-8(%rbp), %rax
	movzbl	(%rax), %edx
	movq	-16(%rbp), %rax
	movb	%dl, (%rax)
	addq	$1, -16(%rbp)
	addq	$1, -8(%rbp)
.L2:
	.loc 1 21 0 discriminator 1
	cmpq	$0, -40(%rbp)
	setne	%al
	subq	$1, -40(%rbp)
	testb	%al, %al
	jne	.L3
.LBE2:
	.loc 1 24 0
	popq	%rbp
.LCFI2:
	.cfi_def_cfa 7, 8
	ret
	.cfi_endproc
.LFE1415:
	.size	_Z7charcpyPcPKcm, .-_Z7charcpyPcPKcm
	.globl	_Z6intcpyPiPKim
	.type	_Z6intcpyPiPKim, @function
_Z6intcpyPiPKim:
.LFB1416:
	.loc 1 26 0
	.cfi_startproc
	pushq	%rbp
.LCFI3:
	.cfi_def_cfa_offset 16
	.cfi_offset 6, -16
	movq	%rsp, %rbp
.LCFI4:
	.cfi_def_cfa_register 6
	movq	%rdi, -40(%rbp)
	movq	%rsi, -48(%rbp)
	movq	%rdx, -56(%rbp)
.LBB3:
	.loc 1 27 0
	movq	-40(%rbp), %rax
	movq	%rax, -32(%rbp)
	.loc 1 28 0
	movq	-48(%rbp), %rax
	movq	%rax, -24(%rbp)
	.loc 1 29 0
	jmp	.L5
.L6:
	.loc 1 30 0
	movq	-24(%rbp), %rax
	movl	(%rax), %edx
	movq	-32(%rbp), %rax
	movl	%edx, (%rax)
	addq	$4, -32(%rbp)
	addq	$4, -24(%rbp)
	.loc 1 31 0
	subq	$4, -56(%rbp)
.L5:
	.loc 1 29 0 discriminator 1
	cmpq	$3, -56(%rbp)
	seta	%al
	testb	%al, %al
	jne	.L6
	.loc 1 33 0
	movq	-32(%rbp), %rax
	movq	%rax, -16(%rbp)
	.loc 1 34 0
	movq	-24(%rbp), %rax
	movq	%rax, -8(%rbp)
	.loc 1 35 0
	jmp	.L7
.L8:
	.loc 1 36 0
	movq	-8(%rbp), %rax
	movzbl	(%rax), %edx
	movq	-16(%rbp), %rax
	movb	%dl, (%rax)
	addq	$1, -16(%rbp)
	addq	$1, -8(%rbp)
.L7:
	.loc 1 35 0 discriminator 1
	cmpq	$0, -56(%rbp)
	setne	%al
	subq	$1, -56(%rbp)
	testb	%al, %al
	jne	.L8
.LBE3:
	.loc 1 38 0
	popq	%rbp
.LCFI5:
	.cfi_def_cfa 7, 8
	ret
	.cfi_endproc
.LFE1416:
	.size	_Z6intcpyPiPKim, .-_Z6intcpyPiPKim
	.globl	_Z6dblcpyPdPKdm
	.type	_Z6dblcpyPdPKdm, @function
_Z6dblcpyPdPKdm:
.LFB1417:
	.loc 1 40 0
	.cfi_startproc
	pushq	%rbp
.LCFI6:
	.cfi_def_cfa_offset 16
	.cfi_offset 6, -16
	movq	%rsp, %rbp
.LCFI7:
	.cfi_def_cfa_register 6
	movq	%rdi, -56(%rbp)
	movq	%rsi, -64(%rbp)
	movq	%rdx, -72(%rbp)
.LBB4:
	.loc 1 41 0
	movq	-56(%rbp), %rax
	movq	%rax, -48(%rbp)
	.loc 1 42 0
	movq	-64(%rbp), %rax
	movq	%rax, -40(%rbp)
	.loc 1 43 0
#APP
# 43 "assembly.cpp" 1
	#while loop
# 0 "" 2
	.loc 1 44 0
#NO_APP
	xorq	%r8 , %r8
	jmp	.L10
.CCC1:
	movq	%r8 , %r9
	andq	$2047 , %r9
	cmpq	$0 , %r9
	jne 	.L11
	movq	-40(%rbp), %r9
	prefetcht0	16384(%r9)
.L11:
	.loc 1 45 0
	movq	-40(%rbp), %rax
	movq	(%rax), %rax
	movq	-48(%rbp), %rdx
	movq	%rax, (%rdx)
	addq	$8, -48(%rbp)
	addq	$8, -40(%rbp)
	addq	$1, %r8
	.loc 1 46 0
	subq	$8, -72(%rbp)
.L10:
	.loc 1 44 0 discriminator 1
	cmpq	$7, -72(%rbp)
	seta	%al
	testb	%al, %al
	jne	.CCC1
	.loc 1 48 0
#APP
# 48 "assembly.cpp" 1
	#end while loop
# 0 "" 2
	.loc 1 50 0
#NO_APP
	movq	-48(%rbp), %rax
	movq	%rax, -32(%rbp)
	.loc 1 51 0
	movq	-40(%rbp), %rax
	movq	%rax, -24(%rbp)
	.loc 1 52 0
	jmp	.L12
.L13:
	.loc 1 53 0
	movq	-24(%rbp), %rax
	movl	(%rax), %edx
	movq	-32(%rbp), %rax
	movl	%edx, (%rax)
	addq	$4, -32(%rbp)
	addq	$4, -24(%rbp)
	.loc 1 54 0
	subq	$4, -72(%rbp)
.L12:
	.loc 1 52 0 discriminator 1
	cmpq	$3, -72(%rbp)
	seta	%al
	testb	%al, %al
	jne	.L13
	.loc 1 56 0
	movq	-32(%rbp), %rax
	movq	%rax, -16(%rbp)
	.loc 1 57 0
	movq	-24(%rbp), %rax
	movq	%rax, -8(%rbp)
	.loc 1 58 0
	jmp	.L14
.L15:
	.loc 1 59 0
	movq	-8(%rbp), %rax
	movzbl	(%rax), %edx
	movq	-16(%rbp), %rax
	movb	%dl, (%rax)
	addq	$1, -16(%rbp)
	addq	$1, -8(%rbp)
.L14:
	.loc 1 58 0 discriminator 1
	cmpq	$0, -72(%rbp)
	setne	%al
	subq	$1, -72(%rbp)
	testb	%al, %al
	jne	.L15
.LBE4:
	.loc 1 61 0
	popq	%rbp
.LCFI8:
	.cfi_def_cfa 7, 8
	ret
	.cfi_endproc
.LFE1417:
	.size	_Z6dblcpyPdPKdm, .-_Z6dblcpyPdPKdm
	.globl	_Z7processPv
	.type	_Z7processPv, @function
_Z7processPv:
.LFB1418:
	.loc 1 64 0
	.cfi_startproc
	pushq	%rbp
.LCFI9:
	.cfi_def_cfa_offset 16
	.cfi_offset 6, -16
	movq	%rsp, %rbp
.LCFI10:
	.cfi_def_cfa_register 6
	addq	$-128, %rsp
	movq	%rdi, -104(%rbp)
.LBB5:
	.loc 1 67 0
	movabsq	$-9223372036854775808, %rax
	movl	$16394, %edx
	movq	%rax, -16(%rbp)
	movl	%edx, -8(%rbp)
	.loc 1 69 0
	fldt	-16(%rbp)
	fldt	.LC1(%rip)
	faddp	%st, %st(1)
	fldt	.LC2(%rip)
	fxch	%st(1)
	fucomi	%st(1), %st
	fstp	%st(1)
	jae	.L17
	fnstcw	-106(%rbp)
	movzwl	-106(%rbp), %eax
	orb	$12, %ah
	movw	%ax, -108(%rbp)
	fldcw	-108(%rbp)
	fistpq	-120(%rbp)
	fldcw	-106(%rbp)
	movq	-120(%rbp), %rax
	jmp	.L18
.L17:
	fldt	.LC2(%rip)
	fsubrp	%st, %st(1)
	fnstcw	-106(%rbp)
	movzwl	-106(%rbp), %eax
	orb	$12, %ah
	movw	%ax, -108(%rbp)
	fldcw	-108(%rbp)
	fistpq	-120(%rbp)
	fldcw	-106(%rbp)
	movq	-120(%rbp), %rax
	movabsq	$-9223372036854775808, %rdx
	xorq	%rdx, %rax
.L18:
	movq	%rax, %rdi
	call	malloc
	movq	%rax, -96(%rbp)
	.loc 1 70 0
	fldt	-16(%rbp)
	fldt	.LC1(%rip)
	faddp	%st, %st(1)
	fldt	.LC2(%rip)
	fxch	%st(1)
	fucomi	%st(1), %st
	fstp	%st(1)
	jae	.L19
	fnstcw	-106(%rbp)
	movzwl	-106(%rbp), %eax
	orb	$12, %ah
	movw	%ax, -108(%rbp)
	fldcw	-108(%rbp)
	fistpq	-120(%rbp)
	fldcw	-106(%rbp)
	movq	-120(%rbp), %rax
	jmp	.L20
.L19:
	fldt	.LC2(%rip)
	fsubrp	%st, %st(1)
	fnstcw	-106(%rbp)
	movzwl	-106(%rbp), %eax
	orb	$12, %ah
	movw	%ax, -108(%rbp)
	fldcw	-108(%rbp)
	fistpq	-120(%rbp)
	fldcw	-106(%rbp)
	movq	-120(%rbp), %rax
	movabsq	$-9223372036854775808, %rdx
	xorq	%rdx, %rax
.L20:
	movq	%rax, %rdi
	call	malloc
	movq	%rax, -88(%rbp)
	.loc 1 71 0
	movq	-96(%rbp), %rax
	movq	%rax, -80(%rbp)
	.loc 1 72 0
	movq	-88(%rbp), %rax
	movq	%rax, -72(%rbp)
	.loc 1 74 0
	movq	-96(%rbp), %rax
	addq	$16, %rax
	andq	$-16, %rax
	movq	%rax, -96(%rbp)
	.loc 1 75 0
	movq	-88(%rbp), %rax
	addq	$16, %rax
	andq	$-16, %rax
	movq	%rax, -88(%rbp)
	.loc 1 77 0
	leaq	-64(%rbp), %rax
	movl	$0, %esi
	movq	%rax, %rdi
	call	gettimeofday
	.loc 1 78 0
#APP
# 78 "assembly.cpp" 1
	#for loop
# 0 "" 2
#NO_APP
.LBB6:
	.loc 1 79 0
	movl	$0, %eax
	movl	$0, %edx
	movq	%rax, -32(%rbp)
	movl	%edx, -24(%rbp)
	jmp	.L21
.L24:
	.loc 1 80 0 discriminator 2
	fldt	-16(%rbp)
	fldt	.LC2(%rip)
	fxch	%st(1)
	fucomip	%st(1), %st
	fstp	%st(0)
	jae	.L22
	fldt	-16(%rbp)
	fnstcw	-106(%rbp)
	movzwl	-106(%rbp), %eax
	orb	$12, %ah
	movw	%ax, -108(%rbp)
	fldcw	-108(%rbp)
	fistpq	-120(%rbp)
	fldcw	-106(%rbp)
	movq	-120(%rbp), %rax
	jmp	.L23
.L22:
	fldt	-16(%rbp)
	fldt	.LC2(%rip)
	fsubrp	%st, %st(1)
	fnstcw	-106(%rbp)
	movzwl	-106(%rbp), %eax
	orb	$12, %ah
	movw	%ax, -108(%rbp)
	fldcw	-108(%rbp)
	fistpq	-120(%rbp)
	fldcw	-106(%rbp)
	movq	-120(%rbp), %rax
	movabsq	$-9223372036854775808, %rdx
	xorq	%rdx, %rax
.L23:
	movq	-96(%rbp), %rsi
	movq	-88(%rbp), %rcx
	movq	%rax, %rdx
	movq	%rcx, %rdi
	call	_Z6dblcpyPdPKdm
	.loc 1 79 0 discriminator 2
	fldt	-32(%rbp)
	fldt	-16(%rbp)
	faddp	%st, %st(1)
	fstpt	-32(%rbp)
.L21:
	.loc 1 79 0 is_stmt 0 discriminator 1
	fldt	-32(%rbp)
	fldt	.LC4(%rip)
	fucomip	%st(1), %st
	fstp	%st(0)
	seta	%al
	testb	%al, %al
	jne	.L24
.LBE6:
	.loc 1 82 0 is_stmt 1
#APP
# 82 "assembly.cpp" 1
	#end for loop
# 0 "" 2
	.loc 1 84 0
#NO_APP
	leaq	-48(%rbp), %rax
	movl	$0, %esi
	movq	%rax, %rdi
	call	gettimeofday
	.loc 1 86 0
	movq	-48(%rbp), %rdx
	movq	-64(%rbp), %rax
	movq	%rdx, %rcx
	subq	%rax, %rcx
	movq	%rcx, %rax
	cvtsi2sdq	%rax, %xmm0
	movsd	%xmm0, total(%rip)
	.loc 1 87 0
	movq	-40(%rbp), %rdx
	movq	-56(%rbp), %rax
	movq	%rdx, %rcx
	subq	%rax, %rcx
	movq	%rcx, %rax
	cvtsi2sdq	%rax, %xmm0
	movsd	.LC5(%rip), %xmm1
	divsd	%xmm1, %xmm0
	movsd	total(%rip), %xmm1
	addsd	%xmm1, %xmm0
	movsd	%xmm0, total(%rip)
	.loc 1 89 0
	movq	-80(%rbp), %rax
	movq	%rax, %rdi
	call	free
	.loc 1 90 0
	movq	-72(%rbp), %rax
	movq	%rax, %rdi
	call	free
.LBE5:
	.loc 1 91 0
	leave
.LCFI11:
	.cfi_def_cfa 7, 8
	ret
	.cfi_endproc
.LFE1418:
	.size	_Z7processPv, .-_Z7processPv
	.section	.rodata
.LC7:
	.string	"a+"
.LC8:
	.string	"assembly.txt"
.LC13:
	.string	"%f\n"
	.text
	.globl	main
	.type	main, @function
main:
.LFB1419:
	.loc 1 94 0
	.cfi_startproc
	pushq	%rbp
.LCFI12:
	.cfi_def_cfa_offset 16
	.cfi_offset 6, -16
	movq	%rsp, %rbp
.LCFI13:
	.cfi_def_cfa_register 6
	subq	$48, %rsp
.LBB7:
	.loc 1 95 0
	movl	$.LC7, %esi
	movl	$.LC8, %edi
	call	fopen
	movq	%rax, -8(%rbp)
	.loc 1 96 0
	movl	$0, %eax
	movq	%rax, -16(%rbp)
.LBB8:
	.loc 1 97 0
	movl	$0, -20(%rbp)
	jmp	.L26
.L27:
	.loc 1 98 0 discriminator 2
	movl	$0, %edi
	call	_Z7processPv
	.loc 1 99 0 discriminator 2
	movsd	total(%rip), %xmm1
	movsd	.LC10(%rip), %xmm0
	mulsd	%xmm1, %xmm0
	movsd	.LC11(%rip), %xmm1
	movapd	%xmm1, %xmm2
	divsd	%xmm0, %xmm2
	movapd	%xmm2, %xmm0
	movsd	-16(%rbp), %xmm1
	addsd	%xmm1, %xmm0
	movsd	%xmm0, -16(%rbp)
	.loc 1 97 0 discriminator 2
	addl	$1, -20(%rbp)
.L26:
	.loc 1 97 0 is_stmt 0 discriminator 1
	cmpl	$4, -20(%rbp)
	setle	%al
	testb	%al, %al
	jne	.L27
.LBE8:
	.loc 1 101 0 is_stmt 1
	movsd	-16(%rbp), %xmm0
	movsd	.LC12(%rip), %xmm1
	divsd	%xmm1, %xmm0
	movsd	%xmm0, -16(%rbp)
	.loc 1 102 0
	movq	-16(%rbp), %rax
	movq	-8(%rbp), %rdx
	movq	%rax, -40(%rbp)
	movsd	-40(%rbp), %xmm0
	movl	$.LC13, %esi
	movq	%rdx, %rdi
	movl	$1, %eax
	call	fprintf
	.loc 1 103 0
	movl	$0, %eax
.LBE7:
	.loc 1 104 0
	leave
.LCFI14:
	.cfi_def_cfa 7, 8
	ret
	.cfi_endproc
.LFE1419:
	.size	main, .-main
	.type	_Z41__static_initialization_and_destruction_0ii, @function
_Z41__static_initialization_and_destruction_0ii:
.LFB1566:
	.loc 1 104 0
	.cfi_startproc
	pushq	%rbp
.LCFI15:
	.cfi_def_cfa_offset 16
	.cfi_offset 6, -16
	movq	%rsp, %rbp
.LCFI16:
	.cfi_def_cfa_register 6
	subq	$16, %rsp
	movl	%edi, -4(%rbp)
	movl	%esi, -8(%rbp)
	.loc 1 104 0
	cmpl	$1, -4(%rbp)
	jne	.L29
	.loc 1 104 0 is_stmt 0 discriminator 1
	cmpl	$65535, -8(%rbp)
	jne	.L29
	.file 2 "/usr/include/c++/4.7/iostream"
	.loc 2 75 0 is_stmt 1
	movl	$_ZStL8__ioinit, %edi
	call	_ZNSt8ios_base4InitC1Ev
	movl	$__dso_handle, %edx
	movl	$_ZStL8__ioinit, %esi
	movl	$_ZNSt8ios_base4InitD1Ev, %edi
	call	__cxa_atexit
.L29:
	.loc 1 104 0
	leave
.LCFI17:
	.cfi_def_cfa 7, 8
	ret
	.cfi_endproc
.LFE1566:
	.size	_Z41__static_initialization_and_destruction_0ii, .-_Z41__static_initialization_and_destruction_0ii
	.type	_GLOBAL__sub_I_total, @function
_GLOBAL__sub_I_total:
.LFB1567:
	.loc 1 104 0
	.cfi_startproc
	pushq	%rbp
.LCFI18:
	.cfi_def_cfa_offset 16
	.cfi_offset 6, -16
	movq	%rsp, %rbp
.LCFI19:
	.cfi_def_cfa_register 6
	.loc 1 104 0
	movl	$65535, %esi
	movl	$1, %edi
	call	_Z41__static_initialization_and_destruction_0ii
	popq	%rbp
.LCFI20:
	.cfi_def_cfa 7, 8
	ret
	.cfi_endproc
.LFE1567:
	.size	_GLOBAL__sub_I_total, .-_GLOBAL__sub_I_total
	.section	.init_array,"aw"
	.align 8
	.quad	_GLOBAL__sub_I_total
	.section	.rodata
	.align 16
.LC1:
	.long	0
	.long	2147483648
	.long	16387
	.long	0
	.align 16
.LC2:
	.long	0
	.long	2147483648
	.long	16446
	.long	0
	.align 16
.LC4:
	.long	0
	.long	2147483648
	.long	16413
	.long	0
	.align 8
.LC5:
	.long	0
	.long	1093567616
	.align 8
.LC10:
	.long	0
	.long	1093664768
	.align 8
.LC11:
	.long	0
	.long	1104150528
	.align 8
.LC12:
	.long	0
	.long	1075052544
	.text
.Letext0:
	.file 3 "/usr/include/libio.h"
	.file 4 "/usr/include/stdio.h"
	.file 5 "<built-in>"
	.file 6 "/usr/lib/gcc/x86_64-linux-gnu/4.7/include/stddef.h"
	.file 7 "/usr/include/wchar.h"
	.file 8 "/usr/include/c++/4.7/cwchar"
	.file 9 "/usr/include/c++/4.7/bits/exception_ptr.h"
	.file 10 "/usr/include/c++/4.7/x86_64-linux-gnu/bits/c++config.h"
	.file 11 "/usr/include/c++/4.7/cstdint"
	.file 12 "/usr/include/c++/4.7/clocale"
	.file 13 "/usr/include/c++/4.7/cstdlib"
	.file 14 "/usr/include/c++/4.7/cstdio"
	.file 15 "/usr/include/c++/4.7/bits/ios_base.h"
	.file 16 "/usr/include/c++/4.7/cwctype"
	.file 17 "/usr/include/c++/4.7/cmath"
	.file 18 "/usr/include/c++/4.7/cstring"
	.file 19 "/usr/include/time.h"
	.file 20 "/usr/include/c++/4.7/ext/new_allocator.h"
	.file 21 "/usr/include/c++/4.7/ext/numeric_traits.h"
	.file 22 "/usr/include/c++/4.7/debug/debug.h"
	.file 23 "/usr/include/stdint.h"
	.file 24 "/usr/include/locale.h"
	.file 25 "/usr/include/x86_64-linux-gnu/bits/types.h"
	.file 26 "/usr/include/x86_64-linux-gnu/bits/time.h"
	.file 27 "/usr/include/c++/4.7/x86_64-linux-gnu/bits/atomic_word.h"
	.file 28 "/usr/include/stdlib.h"
	.file 29 "/usr/include/_G_config.h"
	.file 30 "/usr/include/wctype.h"
	.file 31 "/usr/include/x86_64-linux-gnu/bits/mathdef.h"
	.file 32 "/usr/include/string.h"
	.file 33 "/usr/include/c++/4.7/bits/stl_pair.h"
	.section	.note.GNU-stack,"",@progbits
