	.file	"tests.cpp"
	.text
.Ltext0:
	.p2align 4,,15
	.globl	_Z3potj
	.type	_Z3potj, @function
_Z3potj:
.LFB1514:
	.file 1 "tests.cpp"
	.loc 1 17 0
	.cfi_startproc
.LVL0:
	.loc 1 18 0
	cmpl	$1, %edi
	je	.L4
	movl	$1, %edx
.LVL1:
	.p2align 4,,10
	.p2align 3
.L3:
	.loc 1 21 0
	shrl	%edi
	movl	%edx, %eax
	addl	$1, %edx
	.loc 1 18 0
	cmpl	$1, %edi
	jne	.L3
	rep
	ret
.LVL2:
.L4:
	xorl	%eax, %eax
	.loc 1 22 0
	ret
	.cfi_endproc
.LFE1514:
	.size	_Z3potj, .-_Z3potj
	.section	.rodata.str1.1,"aMS",@progbits,1
.LC0:
	.string	"tests%d.txt"
.LC1:
	.string	"r"
.LC2:
	.string	"w"
.LC5:
	.string	"%d - %f\n"
.LC6:
	.string	" - "
.LC7:
	.string	"\n"
	.section	.text.startup,"ax",@progbits
	.p2align 4,,15
	.globl	main
	.type	main, @function
main:
.LFB1515:
	.loc 1 25 0
	.cfi_startproc
.LVL3:
	pushq	%r15
.LCFI0:
	.cfi_def_cfa_offset 16
	.cfi_offset 15, -16
	pushq	%r14
.LCFI1:
	.cfi_def_cfa_offset 24
	.cfi_offset 14, -24
	pushq	%r13
.LCFI2:
	.cfi_def_cfa_offset 32
	.cfi_offset 13, -32
	pushq	%r12
.LCFI3:
	.cfi_def_cfa_offset 40
	.cfi_offset 12, -40
	movl	%edi, %r12d
	pushq	%rbp
.LCFI4:
	.cfi_def_cfa_offset 48
	.cfi_offset 6, -48
	movq	%rsi, %rbp
	pushq	%rbx
.LCFI5:
	.cfi_def_cfa_offset 56
	.cfi_offset 3, -56
	.loc 1 32 0
	xorl	%ebx, %ebx
	.loc 1 25 0
	subq	$136, %rsp
.LCFI6:
	.cfi_def_cfa_offset 192
	.loc 1 25 0
	movq	%fs:40, %rax
	movq	%rax, 120(%rsp)
	xorl	%eax, %eax
.LVL4:
	jmp	.L42
.LVL5:
.L45:
.LBB92:
.LBB93:
	.loc 1 41 0
	addl	$1, %ebx
.LVL6:
.L42:
.LBB94:
.LBB95:
	.file 2 "/usr/include/x86_64-linux-gnu/bits/stdio2.h"
	.loc 2 35 0
	leaq	96(%rsp), %rdi
	movl	%ebx, %r8d
	movl	$.LC0, %ecx
	movl	$15, %edx
	movl	$1, %esi
	xorl	%eax, %eax
.LBE95:
.LBE94:
	.loc 1 36 0
	movq	$0, 96(%rsp)
	movl	$0, 104(%rsp)
	movw	$0, 108(%rsp)
	movb	$0, 110(%rsp)
.LVL7:
.LBB97:
.LBB96:
	.loc 2 35 0
	call	__sprintf_chk
.LVL8:
.LBE96:
.LBE97:
	.loc 1 38 0
	leaq	96(%rsp), %rdi
.LVL9:
	movl	$.LC1, %esi
	call	fopen
.LVL10:
	.loc 1 39 0
	testq	%rax, %rax
	jne	.L45
	.loc 1 44 0
	leaq	96(%rsp), %rdi
.LVL11:
	movl	$.LC2, %esi
	call	fopen
.LVL12:
.LBE93:
	.loc 1 35 0
	testq	%rax, %rax
.LBB98:
	.loc 1 44 0
	movq	%rax, %r13
.LVL13:
.LBE98:
	.loc 1 35 0
	je	.L42
	.loc 1 47 0
	cmpl	$2, %r12d
	je	.L46
	xorl	%r15d, %r15d
	movq	$128, 40(%rsp)
	.loc 1 50 0
	xorl	%ebx, %ebx
.LVL14:
.L11:
	movl	$10, %ebp
.LVL15:
.L24:
.LBB99:
.LBB100:
	.loc 1 53 0
#APP
# 53 "tests.cpp" 1
	#CopySize
# 0 "" 2
#NO_APP
.LBB101:
	.loc 1 57 0
	movq	40(%rsp), %rdi
	call	malloc
.LVL16:
	.loc 1 66 0
	leaq	64(%rsp), %rdi
	.loc 1 63 0
	leaq	128(%rax), %r14
	.loc 1 66 0
	xorl	%esi, %esi
	.loc 1 57 0
	movq	%rax, %r12
.LVL17:
	.loc 1 63 0
	andq	$-128, %r14
.LVL18:
	.loc 1 66 0
	call	gettimeofday
.LVL19:
	.loc 1 67 0
#APP
# 67 "tests.cpp" 1
	#2nd for loop
# 0 "" 2
.LVL20:
	.loc 1 68 0
#NO_APP
	xorl	%esi, %esi
.LVL21:
	.p2align 4,,10
	.p2align 3
.L13:
.LBB102:
.LBB103:
	.loc 1 69 0
#APP
# 69 "tests.cpp" 1
	#3rd for loop
# 0 "" 2
.LVL22:
#NO_APP
.LBB104:
	.loc 1 70 0
	xorl	%edx, %edx
	testl	%r15d, %r15d
	je	.L15
.LVL23:
	.p2align 4,,10
	.p2align 3
.L34:
	.loc 1 71 0 discriminator 2
	movl	(%r14,%rdx,4), %eax
.LVL24:
	addq	$1, %rdx
	.loc 1 70 0 discriminator 2
	cmpl	%edx, %r15d
	.loc 1 71 0 discriminator 2
	movl	%eax, 60(%rsp)
.LVL25:
	.loc 1 70 0 discriminator 2
	ja	.L34
.L15:
.LBE104:
	.loc 1 73 0
#APP
# 73 "tests.cpp" 1
	#3rd for loop end
# 0 "" 2
#NO_APP
.LBE103:
	.loc 1 68 0
	addl	%ebx, %esi
.LVL26:
	cmpl	$1073741823, %esi
	jbe	.L13
.LBE102:
	.loc 1 75 0
#APP
# 75 "tests.cpp" 1
	#2nd for loop end
# 0 "" 2
	.loc 1 77 0
#NO_APP
	leaq	80(%rsp), %rdi
	xorl	%esi, %esi
.LVL27:
	call	gettimeofday
.LVL28:
	.loc 1 79 0
	movq	80(%rsp), %rax
	subq	64(%rsp), %rax
	cvtsi2sdq	%rax, %xmm1
.LVL29:
	.loc 1 80 0
	movq	88(%rsp), %rax
	subq	72(%rsp), %rax
.LBB105:
.LBB106:
	.loc 1 18 0
	cmpl	$1, %ebx
.LBE106:
.LBE105:
	.loc 1 80 0
	cvtsi2sdq	%rax, %xmm0
	divsd	.LC3(%rip), %xmm0
	addsd	%xmm1, %xmm0
.LVL30:
.LBB109:
.LBB107:
	.loc 1 18 0
	je	.L28
	movl	%ebx, %eax
	xorl	%r14d, %r14d
.LVL31:
	.p2align 4,,10
	.p2align 3
.L17:
	.loc 1 21 0
	shrl	%eax
	addl	$1, %r14d
	.loc 1 18 0
	cmpl	$1, %eax
	jne	.L17
.L16:
.LVL32:
.LBE107:
.LBE109:
	.loc 1 82 0
	movsd	.LC4(%rip), %xmm1
.LBB110:
.LBB111:
	.loc 2 99 0
	movl	%r14d, %ecx
	movl	$.LC5, %edx
	movl	$1, %esi
	movq	%r13, %rdi
.LBE111:
.LBE110:
	.loc 1 82 0
	divsd	%xmm0, %xmm1
.LVL33:
.LBB113:
.LBB112:
	.loc 2 99 0
	movl	$1, %eax
	movapd	%xmm1, %xmm0
.LVL34:
	movsd	%xmm1, (%rsp)
	call	__fprintf_chk
.LVL35:
.LBE112:
.LBE113:
	.loc 1 83 0
	movl	%r14d, %esi
	movl	$_ZSt4cout, %edi
	call	_ZNSolsEi
.LVL36:
.LBB114:
.LBB115:
	.file 3 "/usr/include/c++/4.7/ostream"
	.loc 3 533 0
	movl	$3, %edx
	movl	$.LC6, %esi
	movq	%rax, %rdi
.LBE115:
.LBE114:
	.loc 1 83 0
	movq	%rax, %r14
.LVL37:
.LBB117:
.LBB116:
	.loc 3 533 0
	call	_ZSt16__ostream_insertIcSt11char_traitsIcEERSt13basic_ostreamIT_T0_ES6_PKS3_l
.LVL38:
.LBE116:
.LBE117:
.LBB118:
.LBB119:
	.loc 3 219 0
	movsd	(%rsp), %xmm1
	movq	%r14, %rdi
	movapd	%xmm1, %xmm0
	call	_ZNSo9_M_insertIdEERSoT_
.LVL39:
	movq	%rax, %rcx
.LVL40:
.LBE119:
.LBE118:
.LBB120:
.LBB121:
.LBB122:
	.loc 3 563 0
	movq	(%rax), %rax
.LVL41:
.LBE122:
	.loc 1 94 0
	movq	-24(%rax), %rax
	movq	240(%rcx,%rax), %rdx
.LVL42:
.LBB139:
.LBB123:
.LBB124:
.LBB125:
.LBB126:
	.file 4 "/usr/include/c++/4.7/bits/basic_ios.h"
	.loc 4 50 0
	testq	%rdx, %rdx
	je	.L21
.LVL43:
.LBE126:
.LBE125:
.LBB128:
.LBB129:
	.file 5 "/usr/include/c++/4.7/bits/locale_facets.h"
	.loc 5 869 0
	cmpb	$0, 56(%rdx)
	je	.L19
	.loc 5 870 0
	movzbl	67(%rdx), %eax
.LVL44:
.L20:
.LBE129:
.LBE128:
.LBE124:
.LBE123:
	.loc 3 563 0
	movq	%rcx, %rdi
	movsbl	%al, %esi
	call	_ZNSo3putEc
.LVL45:
.LBB135:
.LBB136:
	.loc 3 585 0
	movq	%rax, %rdi
	call	_ZNSo5flushEv
.LVL46:
.LBE136:
.LBE135:
.LBE139:
.LBE121:
.LBE120:
	.loc 1 85 0
	movq	%r12, %rdi
	call	free
.LVL47:
.LBE101:
.LBB147:
.LBB148:
	.loc 2 99 0
	xorl	%eax, %eax
	movl	$.LC7, %edx
	movl	$1, %esi
	movq	%r13, %rdi
	call	__fprintf_chk
.LVL48:
.LBE148:
.LBE147:
.LBB149:
.LBB150:
.LBB151:
	.loc 3 563 0
	movq	_ZSt4cout(%rip), %rax
.LBE151:
	.loc 1 94 0
	movq	-24(%rax), %rax
	movq	_ZSt4cout+240(%rax), %r12
.LVL49:
.LBB164:
.LBB152:
.LBB153:
.LBB154:
.LBB155:
	.loc 4 50 0
	testq	%r12, %r12
	je	.L21
.LVL50:
.LBE155:
.LBE154:
.LBB156:
.LBB157:
	.loc 5 869 0
	cmpb	$0, 56(%r12)
	je	.L22
	.loc 5 870 0
	movzbl	67(%r12), %eax
.L23:
.LBE157:
.LBE156:
.LBE153:
.LBE152:
	.loc 3 563 0
	movsbl	%al, %esi
	movl	$_ZSt4cout, %edi
	call	_ZNSo3putEc
.LVL51:
.LBB161:
.LBB162:
	.loc 3 585 0
	movq	%rax, %rdi
	call	_ZNSo5flushEv
.LVL52:
.LBE162:
.LBE161:
.LBE164:
.LBE150:
.LBE149:
	.loc 1 90 0
#APP
# 90 "tests.cpp" 1
	#CopySize++
# 0 "" 2
#NO_APP
.LBE100:
	.loc 1 52 0
	subl	$1, %ebp
	jne	.L24
.LBE99:
	.loc 1 92 0
	movq	%r13, %rdi
	call	fclose
.LVL53:
.LBE92:
	.loc 1 94 0
	xorl	%eax, %eax
	movq	120(%rsp), %rdx
	xorq	%fs:40, %rdx
	jne	.L47
	addq	$136, %rsp
.LCFI7:
	.cfi_remember_state
	.cfi_def_cfa_offset 56
	popq	%rbx
.LCFI8:
	.cfi_def_cfa_offset 48
.LVL54:
	popq	%rbp
.LCFI9:
	.cfi_def_cfa_offset 40
	popq	%r12
.LCFI10:
	.cfi_def_cfa_offset 32
.LVL55:
	popq	%r13
.LCFI11:
	.cfi_def_cfa_offset 24
.LVL56:
	popq	%r14
.LCFI12:
	.cfi_def_cfa_offset 16
.LVL57:
	popq	%r15
.LCFI13:
	.cfi_def_cfa_offset 8
	ret
.LVL58:
.L22:
.LCFI14:
	.cfi_restore_state
.LBB176:
.LBB172:
.LBB170:
.LBB167:
.LBB166:
.LBB165:
.LBB163:
.LBB160:
.LBB159:
.LBB158:
	.loc 5 871 0
	movq	%r12, %rdi
	call	_ZNKSt5ctypeIcE13_M_widen_initEv
.LVL59:
	.loc 5 872 0
	movq	(%r12), %rax
	movl	$10, %esi
	movq	%r12, %rdi
	call	*48(%rax)
.LVL60:
	jmp	.L23
.LVL61:
.L19:
.LBE158:
.LBE159:
.LBE160:
.LBE163:
.LBE165:
.LBE166:
.LBE167:
.LBB168:
.LBB144:
.LBB142:
.LBB140:
.LBB137:
.LBB133:
.LBB131:
.LBB130:
	.loc 5 871 0
	movq	%rdx, %rdi
	movq	%rcx, 24(%rsp)
	movq	%rdx, 32(%rsp)
	call	_ZNKSt5ctypeIcE13_M_widen_initEv
.LVL62:
	.loc 5 872 0
	movq	32(%rsp), %rdx
	movl	$10, %esi
	movq	(%rdx), %rax
	movq	%rdx, %rdi
	call	*48(%rax)
.LVL63:
	movq	24(%rsp), %rcx
	jmp	.L20
.LVL64:
.L28:
.LBE130:
.LBE131:
.LBE133:
.LBE137:
.LBE140:
.LBE142:
.LBE144:
.LBB145:
.LBB108:
	.loc 1 18 0
	xorl	%r14d, %r14d
.LVL65:
	jmp	.L16
.LVL66:
.L46:
.LBE108:
.LBE145:
.LBE168:
.LBE170:
.LBE172:
.LBB173:
.LBB174:
	.file 6 "/usr/include/stdlib.h"
	.loc 6 286 0
	movq	8(%rbp), %rdi
	movl	$10, %edx
	xorl	%esi, %esi
	call	strtol
.LVL67:
	leal	128(%rax), %edx
	movl	%eax, %r15d
.LBE174:
.LBE173:
	.loc 1 48 0
	movl	%eax, %ebx
.LVL68:
	shrl	$2, %r15d
	movq	%rdx, 40(%rsp)
	jmp	.L11
.LVL69:
.L47:
.LBE176:
	.loc 1 94 0
	call	__stack_chk_fail
.LVL70:
.L21:
.LBB177:
.LBB175:
.LBB171:
.LBB169:
.LBB146:
.LBB143:
.LBB141:
.LBB138:
.LBB134:
.LBB132:
.LBB127:
	.loc 4 51 0
	call	_ZSt16__throw_bad_castv
.LVL71:
.LBE127:
.LBE132:
.LBE134:
.LBE138:
.LBE141:
.LBE143:
.LBE146:
.LBE169:
.LBE171:
.LBE175:
.LBE177:
	.cfi_endproc
.LFE1515:
	.size	main, .-main
	.p2align 4,,15
	.type	_GLOBAL__sub_I__Z3potj, @function
_GLOBAL__sub_I__Z3potj:
.LFB1672:
	.loc 1 94 0
	.cfi_startproc
.LVL72:
	subq	$8, %rsp
.LCFI15:
	.cfi_def_cfa_offset 16
.LBB180:
.LBB181:
	.file 7 "/usr/include/c++/4.7/iostream"
	.loc 7 75 0
	movl	$_ZStL8__ioinit, %edi
	call	_ZNSt8ios_base4InitC1Ev
.LVL73:
	movl	$__dso_handle, %edx
	movl	$_ZStL8__ioinit, %esi
	movl	$_ZNSt8ios_base4InitD1Ev, %edi
.LBE181:
.LBE180:
	.loc 1 94 0
	addq	$8, %rsp
.LCFI16:
	.cfi_def_cfa_offset 8
.LBB183:
.LBB182:
	.loc 7 75 0
	jmp	__cxa_atexit
.LVL74:
.LBE182:
.LBE183:
	.cfi_endproc
.LFE1672:
	.size	_GLOBAL__sub_I__Z3potj, .-_GLOBAL__sub_I__Z3potj
	.section	.init_array,"aw"
	.align 8
	.quad	_GLOBAL__sub_I__Z3potj
	.local	_ZStL8__ioinit
	.comm	_ZStL8__ioinit,1,1
	.section	.rodata.cst8,"aM",@progbits,8
	.align 8
.LC3:
	.long	0
	.long	1093567616
	.align 8
.LC4:
	.long	0
	.long	1083179008
	.text
.Letext0:
	.file 8 "/usr/include/libio.h"
	.file 9 "/usr/include/stdio.h"
	.file 10 "<built-in>"
	.file 11 "/usr/lib/gcc/x86_64-linux-gnu/4.7/include/stddef.h"
	.file 12 "/usr/include/wchar.h"
	.file 13 "/usr/include/c++/4.7/cwchar"
	.file 14 "/usr/include/c++/4.7/bits/exception_ptr.h"
	.file 15 "/usr/include/c++/4.7/x86_64-linux-gnu/bits/c++config.h"
	.file 16 "/usr/include/c++/4.7/bits/char_traits.h"
	.file 17 "/usr/include/c++/4.7/cstdint"
	.file 18 "/usr/include/c++/4.7/clocale"
	.file 19 "/usr/include/c++/4.7/cstdlib"
	.file 20 "/usr/include/c++/4.7/cstdio"
	.file 21 "/usr/include/c++/4.7/bits/ios_base.h"
	.file 22 "/usr/include/c++/4.7/cwctype"
	.file 23 "/usr/include/c++/4.7/bits/ostream.tcc"
	.file 24 "/usr/include/c++/4.7/cmath"
	.file 25 "/usr/include/c++/4.7/cstring"
	.file 26 "/usr/include/c++/4.7/iosfwd"
	.file 27 "/usr/include/c++/4.7/bits/ostream_insert.h"
	.file 28 "/usr/include/c++/4.7/bits/postypes.h"
	.file 29 "/usr/include/x86_64-linux-gnu/bits/wchar2.h"
	.file 30 "/usr/include/c++/4.7/bits/functexcept.h"
	.file 31 "/usr/include/time.h"
	.file 32 "/usr/include/c++/4.7/ext/new_allocator.h"
	.file 33 "/usr/include/c++/4.7/ext/numeric_traits.h"
	.file 34 "/usr/include/c++/4.7/debug/debug.h"
	.file 35 "/usr/include/stdint.h"
	.file 36 "/usr/include/locale.h"
	.file 37 "/usr/include/x86_64-linux-gnu/bits/types.h"
	.file 38 "/usr/include/x86_64-linux-gnu/bits/time.h"
	.file 39 "/usr/include/c++/4.7/x86_64-linux-gnu/bits/atomic_word.h"
	.file 40 "/usr/include/x86_64-linux-gnu/bits/stdlib.h"
	.file 41 "/usr/include/_G_config.h"
	.file 42 "/usr/include/x86_64-linux-gnu/bits/stdio.h"
	.file 43 "/usr/include/wctype.h"
	.file 44 "/usr/include/x86_64-linux-gnu/sys/time.h"
	.file 45 "/usr/include/x86_64-linux-gnu/bits/mathdef.h"
	.file 46 "/usr/include/string.h"
	.file 47 "/usr/include/x86_64-linux-gnu/bits/string3.h"
	.file 48 "/usr/include/c++/4.7/bits/stl_pair.h"
	.section	.note.GNU-stack,"",@progbits
