	.file	"prefetch.cpp"
	.text
.Ltext0:
	.p2align 4,,15
	.globl	_Z3potj
	.type	_Z3potj, @function
_Z3potj:
.LFB1515:
	.file 1 "prefetch.cpp"
	.loc 1 16 0
	.cfi_startproc
.LVL0:
	.loc 1 17 0
	cmpl	$1, %edi
	je	.L4
	movl	$1, %edx
.LVL1:
	.p2align 4,,10
	.p2align 3
.L3:
	.loc 1 20 0
	shrl	%edi
	movl	%edx, %eax
	addl	$1, %edx
	.loc 1 17 0
	cmpl	$1, %edi
	jne	.L3
	rep
	ret
.LVL2:
.L4:
	xorl	%eax, %eax
	.loc 1 21 0
	ret
	.cfi_endproc
.LFE1515:
	.size	_Z3potj, .-_Z3potj
	.section	.rodata.str1.1,"aMS",@progbits,1
.LC0:
	.string	"a+"
.LC1:
	.string	"prefetch.txt"
.LC4:
	.string	" - "
.LC5:
	.string	"%d - %f\n"
	.section	.text.startup,"ax",@progbits
	.p2align 4,,15
	.globl	main
	.type	main, @function
main:
.LFB1516:
	.loc 1 24 0
	.cfi_startproc
.LVL3:
	pushq	%r15
.LCFI0:
	.cfi_def_cfa_offset 16
	.cfi_offset 15, -16
	pushq	%r14
.LCFI1:
	.cfi_def_cfa_offset 24
	.cfi_offset 14, -24
	pushq	%r13
.LCFI2:
	.cfi_def_cfa_offset 32
	.cfi_offset 13, -32
	pushq	%r12
.LCFI3:
	.cfi_def_cfa_offset 40
	.cfi_offset 12, -40
	pushq	%rbp
.LCFI4:
	.cfi_def_cfa_offset 48
	.cfi_offset 6, -48
	movq	%rsi, %rbp
.LBB82:
	.loc 1 32 0
	movl	$.LC0, %esi
.LVL4:
.LBE82:
	.loc 1 24 0
	pushq	%rbx
.LCFI5:
	.cfi_def_cfa_offset 56
	.cfi_offset 3, -56
	movl	%edi, %ebx
.LBB160:
	.loc 1 32 0
	movl	$.LC1, %edi
.LVL5:
.LBE160:
	.loc 1 24 0
	subq	$104, %rsp
.LCFI6:
	.cfi_def_cfa_offset 160
.LBB161:
	.loc 1 32 0
	call	fopen
.LVL6:
	.loc 1 34 0
	cmpl	$2, %ebx
	.loc 1 32 0
	movq	%rax, 56(%rsp)
.LVL7:
	.loc 1 34 0
	je	.L40
	xorl	%r15d, %r15d
	movq	$132, 40(%rsp)
	.loc 1 37 0
	movl	$4, %ebx
.LVL8:
.L8:
	movl	%r15d, %r14d
	.loc 1 23 0
	movl	$10, 48(%rsp)
	shrl	%r14d
	movl	%r14d, %ebp
.LVL9:
	addl	%ebp, %ebp
	sete	55(%rsp)
.LVL10:
.L27:
.LBB83:
.LBB84:
	.loc 1 40 0
#APP
# 40 "prefetch.cpp" 1
	#CopySize
# 0 "" 2
#NO_APP
.LBB85:
	.loc 1 43 0
	movq	40(%rsp), %rdi
	call	malloc
.LVL11:
	.loc 1 44 0
	movq	40(%rsp), %rdi
	.loc 1 43 0
	movq	%rax, %r13
.LVL12:
	.loc 1 49 0
	leaq	128(%r13), %r12
	.loc 1 44 0
	call	malloc
.LVL13:
	.loc 1 50 0
	movq	%rax, %r9
	.loc 1 52 0
	leaq	64(%rsp), %rdi
	xorl	%esi, %esi
	.loc 1 50 0
	subq	$-128, %r9
	.loc 1 44 0
	movq	%rax, 24(%rsp)
.LVL14:
	.loc 1 49 0
	andq	$-128, %r12
.LVL15:
	.loc 1 50 0
	andq	$-128, %r9
.LVL16:
	.loc 1 52 0
	movq	%r9, 8(%rsp)
	call	gettimeofday
.LVL17:
	.loc 1 53 0
#APP
# 53 "prefetch.cpp" 1
	#2nd for loop
# 0 "" 2
.LVL18:
	.loc 1 23 0
#NO_APP
	movq	8(%rsp), %r9
	movl	$0, %r10d
	leaq	16(%r9), %rax
.LBB86:
	movq	%r9, %rsi
.LBE86:
	cmpq	%rax, %r12
	leaq	16(%r12), %rax
	setae	%r11b
	cmpq	%rax, %r9
	setae	%al
	orl	%eax, %r11d
	cmpl	$5, %r15d
	seta	%al
	andl	%eax, %r11d
	xorl	$1, %r11d
	orb	55(%rsp), %r11b
	cmove	%ebp, %r10d
.LBE85:
.LBE84:
.LBE83:
	.loc 1 54 0
	xorl	%edi, %edi
.LBB155:
.LBB152:
.LBB130:
.LBB91:
	.loc 1 23 0
	subq	%r12, %rsi
.LVL19:
	.p2align 4,,10
	.p2align 3
.L12:
.LBB87:
	.loc 1 55 0
#APP
# 55 "prefetch.cpp" 1
	#3rd for loop
# 0 "" 2
.LVL20:
#NO_APP
.LBB88:
	.loc 1 56 0
	testl	%r15d, %r15d
	je	.L18
	testb	%r11b, %r11b
	jne	.L14
	movq	%r12, %rax
	xorl	%edx, %edx
.LVL21:
	.p2align 4,,10
	.p2align 3
.L15:
	#movl	%edx, %r8d
	#andl	$1023 , %r8d
	#cmpl	$0 , %r8d
	#jne		.LBE87
	#prefetcht0	16384(%rax)
	#prefetcht0	16384(%rsi,%rax)
.LBE88:
.LBE87:
	.loc 1 57 0 discriminator 2
	movapd	(%rax), %xmm0
	addl	$1, %edx
	movapd	%xmm0, (%rsi,%rax)
	addq	$16, %rax
	cmpl	%r14d, %edx
	jb	.L15
	cmpl	%r15d, %ebp
	je	.L18
.L14:
.LBB90:
.LBB89:
	.loc 1 56 0
	#movl	%r10d, %eax
	.p2align 4,,10
	.p2align 3
.L17:
	.loc 1 57 0
	#movl	%eax, %edx
	.loc 1 56 0
	#addl	$1, %eax
.LVL22:
	.loc 1 57 0
	#movsd	(%r12,%rdx,8), %xmm0
	.loc 1 56 0
	#cmpl	%eax, %r15d
	.loc 1 57 0
	#movsd	%xmm0, (%r9,%rdx,8)
	.loc 1 56 0
	#ja	.L17
.LVL23:
.L18:
.LBE89:
	.loc 1 59 0
#APP
# 59 "prefetch.cpp" 1
	#3rd for loop end
# 0 "" 2
#NO_APP
.LBE90:
	.loc 1 54 0
	addl	%ebx, %edi
.LVL24:
	cmpl	$1073741823, %edi
	jbe	.L12
.LBE91:
	.loc 1 61 0
#APP
# 61 "prefetch.cpp" 1
	#2nd for loop end
# 0 "" 2
	.loc 1 63 0
#NO_APP
	leaq	80(%rsp), %rdi
.LVL25:
	xorl	%esi, %esi
	call	gettimeofday
.LVL26:
	.loc 1 65 0
	movq	80(%rsp), %rax
	subq	64(%rsp), %rax
	cvtsi2sdq	%rax, %xmm1
.LVL27:
	.loc 1 66 0
	movq	88(%rsp), %rax
	subq	72(%rsp), %rax
.LBB92:
.LBB93:
	.loc 1 17 0
	cmpl	$1, %ebx
.LBE93:
.LBE92:
	.loc 1 66 0
	cvtsi2sdq	%rax, %xmm0
	divsd	.LC2(%rip), %xmm0
	addsd	%xmm1, %xmm0
.LVL28:
.LBB96:
.LBB94:
	.loc 1 17 0
	je	.L29
	movl	%ebx, %edx
	movl	$1, %eax
.LVL29:
	.p2align 4,,10
	.p2align 3
.L20:
	.loc 1 20 0
	shrl	%edx
	movl	%eax, %r12d
	addl	$1, %eax
	.loc 1 17 0
	cmpl	$1, %edx
	jne	.L20
.L19:
.LVL30:
.LBE94:
.LBE96:
	.loc 1 68 0
	movsd	.LC3(%rip), %xmm1
	movl	%r12d, %esi
	movl	$_ZSt4cout, %edi
	divsd	%xmm0, %xmm1
	movsd	%xmm1, 32(%rsp)
	call	_ZNSolsEi
.LVL31:
.LBB97:
.LBB98:
	.file 2 "/usr/include/c++/4.7/ostream"
	.loc 2 533 0
	movl	$3, %edx
	movl	$.LC4, %esi
	movq	%rax, %rdi
	movq	%rax, 8(%rsp)
	call	_ZSt16__ostream_insertIcSt11char_traitsIcEERSt13basic_ostreamIT_T0_ES6_PKS3_l
.LVL32:
.LBE98:
.LBE97:
.LBB99:
.LBB100:
	.loc 2 219 0
	movq	8(%rsp), %r9
	movsd	32(%rsp), %xmm0
	movq	%r9, %rdi
	call	_ZNSo9_M_insertIdEERSoT_
.LVL33:
	movq	%rax, %r9
.LVL34:
.LBE100:
.LBE99:
.LBB101:
.LBB102:
.LBB103:
	.loc 2 563 0
	movq	(%rax), %rax
.LVL35:
.LBE103:
	.loc 1 79 0
	movq	-24(%rax), %rax
	movq	240(%r9,%rax), %rdx
.LVL36:
.LBB120:
.LBB104:
.LBB105:
.LBB106:
.LBB107:
	.file 3 "/usr/include/c++/4.7/bits/basic_ios.h"
	.loc 3 50 0
	testq	%rdx, %rdx
	je	.L24
.LVL37:
.LBE107:
.LBE106:
.LBB109:
.LBB110:
	.file 4 "/usr/include/c++/4.7/bits/locale_facets.h"
	.loc 4 869 0
	cmpb	$0, 56(%rdx)
	je	.L22
	.loc 4 870 0
	movzbl	67(%rdx), %eax
.LVL38:
.L23:
.LBE110:
.LBE109:
.LBE105:
.LBE104:
	.loc 2 563 0
	movq	%r9, %rdi
	movsbl	%al, %esi
	call	_ZNSo3putEc
.LVL39:
.LBB116:
.LBB117:
	.loc 2 585 0
	movq	%rax, %rdi
	call	_ZNSo5flushEv
.LVL40:
.LBE117:
.LBE116:
.LBE120:
.LBE102:
.LBE101:
.LBB125:
.LBB126:
	.file 5 "/usr/include/x86_64-linux-gnu/bits/stdio2.h"
	.loc 5 98 0
	movq	56(%rsp), %rdi
	movsd	32(%rsp), %xmm0
	movl	%r12d, %ecx
	movl	$.LC5, %edx
	movl	$1, %esi
	movl	$1, %eax
	call	__fprintf_chk
.LVL41:
.LBE126:
.LBE125:
	.loc 1 71 0
	movq	%r13, %rdi
	call	free
.LVL42:
	.loc 1 72 0
	movq	24(%rsp), %rdi
	call	free
.LVL43:
.LBE130:
.LBB131:
.LBB132:
.LBB133:
	.loc 2 563 0
	movq	_ZSt4cout(%rip), %rax
.LBE133:
	.loc 1 79 0
	movq	-24(%rax), %rax
	movq	_ZSt4cout+240(%rax), %r12
.LVL44:
.LBB146:
.LBB134:
.LBB135:
.LBB136:
.LBB137:
	.loc 3 50 0
	testq	%r12, %r12
	je	.L24
.LVL45:
.LBE137:
.LBE136:
.LBB138:
.LBB139:
	.loc 4 869 0
	cmpb	$0, 56(%r12)
	je	.L25
	.loc 4 870 0
	movzbl	67(%r12), %eax
.L26:
.LBE139:
.LBE138:
.LBE135:
.LBE134:
	.loc 2 563 0
	movsbl	%al, %esi
	movl	$_ZSt4cout, %edi
	call	_ZNSo3putEc
.LVL46:
.LBB143:
.LBB144:
	.loc 2 585 0
	movq	%rax, %rdi
	call	_ZNSo5flushEv
.LVL47:
.LBE144:
.LBE143:
.LBE146:
.LBE132:
.LBE131:
	.loc 1 75 0
#APP
# 75 "prefetch.cpp" 1
	#CopySize++
# 0 "" 2
#NO_APP
.LBE152:
	.loc 1 39 0
	subl	$1, 48(%rsp)
	jne	.L27
.LBE155:
	.loc 1 77 0
	movq	56(%rsp), %rdi
	call	fclose
.LVL48:
.LBE161:
	.loc 1 79 0
	addq	$104, %rsp
.LCFI7:
	.cfi_remember_state
	.cfi_def_cfa_offset 56
	xorl	%eax, %eax
	popq	%rbx
.LCFI8:
	.cfi_def_cfa_offset 48
.LVL49:
	popq	%rbp
.LCFI9:
	.cfi_def_cfa_offset 40
	popq	%r12
.LCFI10:
	.cfi_def_cfa_offset 32
.LVL50:
	popq	%r13
.LCFI11:
	.cfi_def_cfa_offset 24
.LVL51:
	popq	%r14
.LCFI12:
	.cfi_def_cfa_offset 16
	popq	%r15
.LCFI13:
	.cfi_def_cfa_offset 8
	ret
.LVL52:
.L25:
.LCFI14:
	.cfi_restore_state
.LBB162:
.LBB156:
.LBB153:
.LBB149:
.LBB148:
.LBB147:
.LBB145:
.LBB142:
.LBB141:
.LBB140:
	.loc 4 871 0
	movq	%r12, %rdi
	call	_ZNKSt5ctypeIcE13_M_widen_initEv
.LVL53:
	.loc 4 872 0
	movq	(%r12), %rax
	movl	$10, %esi
	movq	%r12, %rdi
	call	*48(%rax)
.LVL54:
	jmp	.L26
.LVL55:
.L22:
.LBE140:
.LBE141:
.LBE142:
.LBE145:
.LBE147:
.LBE148:
.LBE149:
.LBB150:
.LBB127:
.LBB123:
.LBB121:
.LBB118:
.LBB114:
.LBB112:
.LBB111:
	.loc 4 871 0
	movq	%rdx, %rdi
	movq	%r9, 8(%rsp)
	movq	%rdx, 16(%rsp)
	call	_ZNKSt5ctypeIcE13_M_widen_initEv
.LVL56:
	.loc 4 872 0
	movq	16(%rsp), %rdx
	movl	$10, %esi
	movq	(%rdx), %rax
	movq	%rdx, %rdi
	call	*48(%rax)
.LVL57:
	movq	8(%rsp), %r9
	jmp	.L23
.LVL58:
.L29:
.LBE111:
.LBE112:
.LBE114:
.LBE118:
.LBE121:
.LBE123:
.LBE127:
.LBB128:
.LBB95:
	.loc 1 17 0
	xorl	%r12d, %r12d
.LVL59:
	jmp	.L19
.LVL60:
.L40:
.LBE95:
.LBE128:
.LBE150:
.LBE153:
.LBE156:
.LBB157:
.LBB158:
	.file 6 "/usr/include/stdlib.h"
	.loc 6 280 0
	movq	8(%rbp), %rdi
	movl	$10, %edx
	xorl	%esi, %esi
	call	strtol
.LVL61:
	leal	128(%rax), %edx
	movl	%eax, %r15d
.LBE158:
.LBE157:
	.loc 1 35 0
	movl	%eax, %ebx
.LVL62:
	shrl	$3, %r15d
	movq	%rdx, 40(%rsp)
	jmp	.L8
.LVL63:
.L24:
.LBB159:
.LBB154:
.LBB151:
.LBB129:
.LBB124:
.LBB122:
.LBB119:
.LBB115:
.LBB113:
.LBB108:
	.loc 3 51 0
	call	_ZSt16__throw_bad_castv
.LVL64:
.LBE108:
.LBE113:
.LBE115:
.LBE119:
.LBE122:
.LBE124:
.LBE129:
.LBE151:
.LBE154:
.LBE159:
.LBE162:
	.cfi_endproc
.LFE1516:
	.size	main, .-main
	.p2align 4,,15
	.type	_GLOBAL__sub_I__Z3potj, @function
_GLOBAL__sub_I__Z3potj:
.LFB1673:
	.loc 1 79 0
	.cfi_startproc
.LVL65:
	subq	$8, %rsp
.LCFI15:
	.cfi_def_cfa_offset 16
.LBB165:
.LBB166:
	.file 7 "/usr/include/c++/4.7/iostream"
	.loc 7 75 0
	movl	$_ZStL8__ioinit, %edi
	call	_ZNSt8ios_base4InitC1Ev
.LVL66:
	movl	$__dso_handle, %edx
	movl	$_ZStL8__ioinit, %esi
	movl	$_ZNSt8ios_base4InitD1Ev, %edi
.LBE166:
.LBE165:
	.loc 1 79 0
	addq	$8, %rsp
.LCFI16:
	.cfi_def_cfa_offset 8
.LBB168:
.LBB167:
	.loc 7 75 0
	jmp	__cxa_atexit
.LVL67:
.LBE167:
.LBE168:
	.cfi_endproc
.LFE1673:
	.size	_GLOBAL__sub_I__Z3potj, .-_GLOBAL__sub_I__Z3potj
	.section	.init_array,"aw"
	.align 8
	.quad	_GLOBAL__sub_I__Z3potj
	.local	_ZStL8__ioinit
	.comm	_ZStL8__ioinit,1,1
	.section	.rodata.cst8,"aM",@progbits,8
	.align 8
.LC2:
	.long	0
	.long	1093567616
	.align 8
.LC3:
	.long	0
	.long	1083179008
	.text
.Letext0:
	.file 8 "/usr/include/libio.h"
	.file 9 "/usr/include/stdio.h"
	.file 10 "<built-in>"
	.file 11 "/usr/lib/gcc/x86_64-linux-gnu/4.7/include/stddef.h"
	.file 12 "/usr/include/wchar.h"
	.file 13 "/usr/include/c++/4.7/cwchar"
	.file 14 "/usr/include/c++/4.7/bits/exception_ptr.h"
	.file 15 "/usr/include/x86_64-linux-gnu/c++/4.7/./bits/c++config.h"
	.file 16 "/usr/include/c++/4.7/bits/char_traits.h"
	.file 17 "/usr/include/c++/4.7/cstdint"
	.file 18 "/usr/include/c++/4.7/clocale"
	.file 19 "/usr/include/c++/4.7/cstdlib"
	.file 20 "/usr/include/c++/4.7/cstdio"
	.file 21 "/usr/include/c++/4.7/bits/ios_base.h"
	.file 22 "/usr/include/c++/4.7/cwctype"
	.file 23 "/usr/include/c++/4.7/bits/ostream.tcc"
	.file 24 "/usr/include/c++/4.7/cmath"
	.file 25 "/usr/include/c++/4.7/cstring"
	.file 26 "/usr/include/c++/4.7/iosfwd"
	.file 27 "/usr/include/c++/4.7/bits/ostream_insert.h"
	.file 28 "/usr/include/c++/4.7/bits/postypes.h"
	.file 29 "/usr/include/x86_64-linux-gnu/bits/wchar2.h"
	.file 30 "/usr/include/c++/4.7/bits/functexcept.h"
	.file 31 "/usr/include/time.h"
	.file 32 "/usr/include/c++/4.7/ext/new_allocator.h"
	.file 33 "/usr/include/c++/4.7/ext/numeric_traits.h"
	.file 34 "/usr/include/c++/4.7/debug/debug.h"
	.file 35 "/usr/include/stdint.h"
	.file 36 "/usr/include/locale.h"
	.file 37 "/usr/include/x86_64-linux-gnu/bits/types.h"
	.file 38 "/usr/include/x86_64-linux-gnu/bits/time.h"
	.file 39 "/usr/include/x86_64-linux-gnu/c++/4.7/./bits/atomic_word.h"
	.file 40 "/usr/include/x86_64-linux-gnu/bits/stdlib-float.h"
	.file 41 "/usr/include/x86_64-linux-gnu/bits/stdlib.h"
	.file 42 "/usr/include/_G_config.h"
	.file 43 "/usr/include/x86_64-linux-gnu/bits/stdio.h"
	.file 44 "/usr/include/wctype.h"
	.file 45 "/usr/include/x86_64-linux-gnu/sys/time.h"
	.file 46 "/usr/include/x86_64-linux-gnu/bits/mathdef.h"
	.file 47 "/usr/include/string.h"
	.file 48 "/usr/include/x86_64-linux-gnu/bits/string3.h"
	.file 49 "/usr/include/c++/4.7/bits/stl_pair.h"
	.section	.note.GNU-stack,"",@progbits
